; ModuleID = '27/213.c'
source_filename = "27/213.c"
target datalayout = "e-m:e-p270:32:32-p271:32:32-p272:64:64-i64:64-f80:128-n8:16:32:64-S128"
target triple = "x86_64-pc-linux-gnu"

@.str = private unnamed_addr constant [16 x i8] c"x1=%.5f;x2=%.5f\00", align 1
@.str.1 = private unnamed_addr constant [11 x i8] c"x1=x2=%.5f\00", align 1
@.str.2 = private unnamed_addr constant [28 x i8] c"x1=%.5f+%.5fi;x2=%.5f-%.5fi\00", align 1
@.str.3 = private unnamed_addr constant [3 x i8] c"%d\00", align 1
@.str.4 = private unnamed_addr constant [12 x i8] c"%lf %lf %lf\00", align 1
@.str.5 = private unnamed_addr constant [2 x i8] c"\0A\00", align 1

; Function Attrs: noinline nounwind uwtable
define dso_local float @f(double %0, double %1, double %2) #0 {
  %4 = alloca double, align 8
  %5 = alloca double, align 8
  %6 = alloca double, align 8
  %7 = alloca double, align 8
  %8 = alloca double, align 8
  %9 = alloca double, align 8
  %10 = alloca double, align 8
  %11 = alloca double, align 8
  store double %0, double* %4, align 8
  store double %1, double* %5, align 8
  store double %2, double* %6, align 8
  %12 = load double, double* %5, align 8
  %13 = load double, double* %5, align 8
  %14 = fmul double %12, %13
  %15 = load double, double* %4, align 8
  %16 = fmul double 4.000000e+00, %15
  %17 = load double, double* %6, align 8
  %18 = fmul double %16, %17
  %19 = fsub double %14, %18
  store double %19, double* %9, align 8
  %20 = load double, double* %9, align 8
  %21 = fcmp ogt double %20, 0.000000e+00
  br i1 %21, label %22, label %56

22:                                               ; preds = %3
  %23 = load double, double* %5, align 8
  %24 = fneg double %23
  %25 = load double, double* %5, align 8
  %26 = load double, double* %5, align 8
  %27 = fmul double %25, %26
  %28 = load double, double* %4, align 8
  %29 = fmul double 4.000000e+00, %28
  %30 = load double, double* %6, align 8
  %31 = fmul double %29, %30
  %32 = fsub double %27, %31
  %33 = call double @sqrt(double %32) #3
  %34 = fadd double %24, %33
  %35 = load double, double* %4, align 8
  %36 = fmul double 2.000000e+00, %35
  %37 = fdiv double %34, %36
  store double %37, double* %7, align 8
  %38 = load double, double* %5, align 8
  %39 = fneg double %38
  %40 = load double, double* %5, align 8
  %41 = load double, double* %5, align 8
  %42 = fmul double %40, %41
  %43 = load double, double* %4, align 8
  %44 = fmul double 4.000000e+00, %43
  %45 = load double, double* %6, align 8
  %46 = fmul double %44, %45
  %47 = fsub double %42, %46
  %48 = call double @sqrt(double %47) #3
  %49 = fsub double %39, %48
  %50 = load double, double* %4, align 8
  %51 = fmul double 2.000000e+00, %50
  %52 = fdiv double %49, %51
  store double %52, double* %8, align 8
  %53 = load double, double* %7, align 8
  %54 = load double, double* %8, align 8
  %55 = call i32 (i8*, ...) @printf(i8* getelementptr inbounds ([16 x i8], [16 x i8]* @.str, i64 0, i64 0), double %53, double %54)
  br label %56

56:                                               ; preds = %22, %3
  %57 = load double, double* %9, align 8
  %58 = fcmp oeq double 0.000000e+00, %57
  br i1 %58, label %59, label %77

59:                                               ; preds = %56
  %60 = load double, double* %5, align 8
  %61 = fneg double %60
  %62 = load double, double* %5, align 8
  %63 = load double, double* %5, align 8
  %64 = fmul double %62, %63
  %65 = load double, double* %4, align 8
  %66 = fmul double 4.000000e+00, %65
  %67 = load double, double* %6, align 8
  %68 = fmul double %66, %67
  %69 = fsub double %64, %68
  %70 = call double @sqrt(double %69) #3
  %71 = fadd double %61, %70
  %72 = load double, double* %4, align 8
  %73 = fmul double 2.000000e+00, %72
  %74 = fdiv double %71, %73
  store double %74, double* %7, align 8
  %75 = load double, double* %7, align 8
  %76 = call i32 (i8*, ...) @printf(i8* getelementptr inbounds ([11 x i8], [11 x i8]* @.str.1, i64 0, i64 0), double %75)
  br label %77

77:                                               ; preds = %59, %56
  %78 = load double, double* %9, align 8
  %79 = fcmp olt double %78, 0.000000e+00
  br i1 %79, label %80, label %110

80:                                               ; preds = %77
  %81 = load double, double* %5, align 8
  %82 = fneg double %81
  %83 = load double, double* %4, align 8
  %84 = fmul double 2.000000e+00, %83
  %85 = fdiv double %82, %84
  store double %85, double* %7, align 8
  %86 = load double, double* %7, align 8
  %87 = fcmp oeq double 0.000000e+00, %86
  br i1 %87, label %88, label %89

88:                                               ; preds = %80
  store double 0.000000e+00, double* %7, align 8
  br label %89

89:                                               ; preds = %88, %80
  %90 = load double, double* %5, align 8
  %91 = load double, double* %5, align 8
  %92 = fmul double %90, %91
  %93 = load double, double* %4, align 8
  %94 = fmul double 4.000000e+00, %93
  %95 = load double, double* %6, align 8
  %96 = fmul double %94, %95
  %97 = fsub double %92, %96
  %98 = fneg double %97
  %99 = load double, double* %4, align 8
  %100 = fmul double 4.000000e+00, %99
  %101 = load double, double* %4, align 8
  %102 = fmul double %100, %101
  %103 = fdiv double %98, %102
  %104 = call double @sqrt(double %103) #3
  store double %104, double* %10, align 8
  %105 = load double, double* %7, align 8
  %106 = load double, double* %10, align 8
  %107 = load double, double* %7, align 8
  %108 = load double, double* %10, align 8
  %109 = call i32 (i8*, ...) @printf(i8* getelementptr inbounds ([28 x i8], [28 x i8]* @.str.2, i64 0, i64 0), double %105, double %106, double %107, double %108)
  br label %110

110:                                              ; preds = %89, %77
  ret float 0.000000e+00
}

; Function Attrs: nounwind
declare dso_local double @sqrt(double) #1

declare dso_local i32 @printf(i8*, ...) #2

; Function Attrs: noinline nounwind uwtable
define dso_local i32 @main() #0 {
  %1 = alloca i32, align 4
  %2 = alloca [20 x double], align 16
  %3 = alloca [20 x double], align 16
  %4 = alloca [20 x double], align 16
  %5 = alloca i32, align 4
  %6 = alloca i32, align 4
  %7 = alloca i32, align 4
  store i32 0, i32* %1, align 4
  %8 = call i32 (i8*, ...) @__isoc99_scanf(i8* getelementptr inbounds ([3 x i8], [3 x i8]* @.str.3, i64 0, i64 0), i32* %6)
  store i32 0, i32* %5, align 4
  br label %9

9:                                                ; preds = %24, %0
  %10 = load i32, i32* %5, align 4
  %11 = load i32, i32* %6, align 4
  %12 = icmp slt i32 %10, %11
  br i1 %12, label %13, label %27

13:                                               ; preds = %9
  %14 = load i32, i32* %5, align 4
  %15 = sext i32 %14 to i64
  %16 = getelementptr inbounds [20 x double], [20 x double]* %2, i64 0, i64 %15
  %17 = load i32, i32* %5, align 4
  %18 = sext i32 %17 to i64
  %19 = getelementptr inbounds [20 x double], [20 x double]* %3, i64 0, i64 %18
  %20 = load i32, i32* %5, align 4
  %21 = sext i32 %20 to i64
  %22 = getelementptr inbounds [20 x double], [20 x double]* %4, i64 0, i64 %21
  %23 = call i32 (i8*, ...) @__isoc99_scanf(i8* getelementptr inbounds ([12 x i8], [12 x i8]* @.str.4, i64 0, i64 0), double* %16, double* %19, double* %22)
  br label %24

24:                                               ; preds = %13
  %25 = load i32, i32* %5, align 4
  %26 = add nsw i32 %25, 1
  store i32 %26, i32* %5, align 4
  br label %9

27:                                               ; preds = %9
  store i32 0, i32* %5, align 4
  br label %28

28:                                               ; preds = %52, %27
  %29 = load i32, i32* %5, align 4
  %30 = load i32, i32* %6, align 4
  %31 = icmp slt i32 %29, %30
  br i1 %31, label %32, label %55

32:                                               ; preds = %28
  %33 = load i32, i32* %5, align 4
  %34 = icmp ne i32 %33, 0
  br i1 %34, label %35, label %37

35:                                               ; preds = %32
  %36 = call i32 (i8*, ...) @printf(i8* getelementptr inbounds ([2 x i8], [2 x i8]* @.str.5, i64 0, i64 0))
  br label %37

37:                                               ; preds = %35, %32
  %38 = load i32, i32* %5, align 4
  %39 = sext i32 %38 to i64
  %40 = getelementptr inbounds [20 x double], [20 x double]* %2, i64 0, i64 %39
  %41 = load double, double* %40, align 8
  %42 = load i32, i32* %5, align 4
  %43 = sext i32 %42 to i64
  %44 = getelementptr inbounds [20 x double], [20 x double]* %3, i64 0, i64 %43
  %45 = load double, double* %44, align 8
  %46 = load i32, i32* %5, align 4
  %47 = sext i32 %46 to i64
  %48 = getelementptr inbounds [20 x double], [20 x double]* %4, i64 0, i64 %47
  %49 = load double, double* %48, align 8
  %50 = call float @f(double %41, double %45, double %49)
  %51 = fptosi float %50 to i32
  store i32 %51, i32* %7, align 4
  br label %52

52:                                               ; preds = %37
  %53 = load i32, i32* %5, align 4
  %54 = add nsw i32 %53, 1
  store i32 %54, i32* %5, align 4
  br label %28

55:                                               ; preds = %28
  %56 = load i32, i32* %1, align 4
  ret i32 %56
}

declare dso_local i32 @__isoc99_scanf(i8*, ...) #2


!llvm.module.flags = !{!0}
!llvm.ident = !{!1}

!0 = !{i32 1, !"wchar_size", i32 4}
!1 = !{!"clang version 10.0.0-4ubuntu1 "}
